; Function Attrs: mustprogress nounwind uwtable
define internal fastcc noundef zeroext i1 @_ZN12_GLOBAL__N_110MasmParser29parseDirectiveSymbolAttributeEN4llvm12MCSymbolAttrE(ptr noundef nonnull align 8 dereferenceable(1144) %0) unnamed_addr #0 align 2 {
  %2 = alloca i32, align 4
  %3 = alloca %class.anon.570, align 8
  %4 = alloca %"class.llvm::Twine", align 8
  store i32 9, ptr %2, align 4
  store ptr %0, ptr %3, align 8
  %5 = getelementptr inbounds nuw i8, ptr %3, i64 8
  store ptr %2, ptr %5, align 8
  %6 = ptrtoint ptr %3 to i64
  %7 = call noundef zeroext i1 @_ZN4llvm11MCAsmParser9parseManyENS_12function_refIFbvEEEb(ptr noundef nonnull align 8 dereferenceable(34) %0, ptr nonnull @"_ZN4llvm12function_refIFbvEE11callback_fnIZN12_GLOBAL__N_110MasmParser29parseDirectiveSymbolAttributeENS_12MCSymbolAttrEE3$_0EEbl", i64 %6, i1 noundef zeroext true) #24
  br i1 %7, label %8, label %12

8:                                                ; preds = %1
  %9 = getelementptr inbounds nuw i8, ptr %4, i64 32
  %10 = getelementptr inbounds nuw i8, ptr %4, i64 33
  store i8 1, ptr %10, align 1
  store ptr @.str.196, ptr %4, align 8
  store i8 3, ptr %9, align 8
  %11 = call noundef zeroext i1 @_ZN4llvm11MCAsmParser14addErrorSuffixERKNS_5TwineE(ptr noundef nonnull align 8 dereferenceable(34) %0, ptr noundef nonnull align 8 dereferenceable(34) %4) #24
  br label %12

12:                                               ; preds = %1, %8
  %.0 = phi i1 [ %11, %8 ], [ false, %1 ]
  ret i1 %.0
}